target datalayout = "e-m:e-p270:32:32-p271:32:32-p272:64:64-i64:64-i128:128-f80:128-n8:16:32:64-S128"
target triple = "x86_64-pc-linux-gnu"

%struct.jpeg_decompress_struct = type { ptr, ptr, ptr, ptr, i32, i32, ptr, i32, i32, i32, i32, i32, i32, i32, double, i32, i32, i32, i32, i32, i32, i32, i32, i32, i32, i32, i32, i32, i32, i32, i32, i32, i32, ptr, i32, i32, i32, i32, i32, ptr, [4 x ptr], [4 x ptr], [4 x ptr], i32, ptr, i32, i32, [16 x i8], [16 x i8], [16 x i8], i32, i32, i8, i8, i8, i16, i16, i32, i8, i32, ptr, i32, i32, i32, i32, ptr, i32, [4 x ptr], i32, i32, i32, [10 x i32], i32, i32, i32, i32, i32, ptr, ptr, ptr, ptr, ptr, ptr, ptr, ptr, ptr, ptr, ptr }
%struct.my_upsampler = type { %struct.jpeg_upsampler, ptr, ptr, ptr, ptr, ptr, ptr, i32, i32, i32 }
%struct.jpeg_upsampler = type { ptr, ptr, i32 }

; Function Attrs: nounwind uwtable
define internal void @h2v2_merged_upsample(ptr noundef %0, ptr noundef %1, i32 noundef %2, ptr noundef %3) #0 {
  %5 = alloca ptr, align 8
  %6 = alloca ptr, align 8
  %7 = alloca i32, align 4
  %8 = alloca ptr, align 8
  %9 = alloca ptr, align 8
  %10 = alloca i32, align 4
  %11 = alloca i32, align 4
  %12 = alloca i32, align 4
  %13 = alloca i32, align 4
  %14 = alloca i32, align 4
  %15 = alloca i32, align 4
  %16 = alloca ptr, align 8
  %17 = alloca ptr, align 8
  %18 = alloca ptr, align 8
  %19 = alloca ptr, align 8
  %20 = alloca ptr, align 8
  %21 = alloca ptr, align 8
  %22 = alloca i32, align 4
  %23 = alloca ptr, align 8
  %24 = alloca ptr, align 8
  %25 = alloca ptr, align 8
  %26 = alloca ptr, align 8
  %27 = alloca ptr, align 8
  store ptr %0, ptr %5, align 8
  store ptr %1, ptr %6, align 8
  store i32 %2, ptr %7, align 4
  store ptr %3, ptr %8, align 8
  %28 = load ptr, ptr %5, align 8
  %29 = getelementptr inbounds %struct.jpeg_decompress_struct, ptr %28, i32 0, i32 85
  %30 = load ptr, ptr %29, align 8
  store ptr %30, ptr %9, align 8
  %31 = load ptr, ptr %5, align 8
  %32 = getelementptr inbounds %struct.jpeg_decompress_struct, ptr %31, i32 0, i32 65
  %33 = load ptr, ptr %32, align 8
  store ptr %33, ptr %23, align 8
  %34 = load ptr, ptr %9, align 8
  %35 = getelementptr inbounds %struct.my_upsampler, ptr %34, i32 0, i32 2
  %36 = load ptr, ptr %35, align 8
  store ptr %36, ptr %24, align 8
  %37 = load ptr, ptr %9, align 8
  %38 = getelementptr inbounds %struct.my_upsampler, ptr %37, i32 0, i32 3
  %39 = load ptr, ptr %38, align 8
  store ptr %39, ptr %25, align 8
  %40 = load ptr, ptr %9, align 8
  %41 = getelementptr inbounds %struct.my_upsampler, ptr %40, i32 0, i32 4
  %42 = load ptr, ptr %41, align 8
  store ptr %42, ptr %26, align 8
  %43 = load ptr, ptr %9, align 8
  %44 = getelementptr inbounds %struct.my_upsampler, ptr %43, i32 0, i32 5
  %45 = load ptr, ptr %44, align 8
  store ptr %45, ptr %27, align 8
  %46 = load ptr, ptr %6, align 8
  %47 = getelementptr inbounds ptr, ptr %46, i64 0
  %48 = load ptr, ptr %47, align 8
  %49 = load i32, ptr %7, align 4
  %50 = mul i32 %49, 2
  %51 = zext i32 %50 to i64
  %52 = getelementptr inbounds ptr, ptr %48, i64 %51
  %53 = load ptr, ptr %52, align 8
  store ptr %53, ptr %18, align 8
  %54 = load ptr, ptr %6, align 8
  %55 = getelementptr inbounds ptr, ptr %54, i64 0
  %56 = load ptr, ptr %55, align 8
  %57 = load i32, ptr %7, align 4
  %58 = mul i32 %57, 2
  %59 = add i32 %58, 1
  %60 = zext i32 %59 to i64
  %61 = getelementptr inbounds ptr, ptr %56, i64 %60
  %62 = load ptr, ptr %61, align 8
  store ptr %62, ptr %19, align 8
  %63 = load ptr, ptr %6, align 8
  %64 = getelementptr inbounds ptr, ptr %63, i64 1
  %65 = load ptr, ptr %64, align 8
  %66 = load i32, ptr %7, align 4
  %67 = zext i32 %66 to i64
  %68 = getelementptr inbounds ptr, ptr %65, i64 %67
  %69 = load ptr, ptr %68, align 8
  store ptr %69, ptr %20, align 8
  %70 = load ptr, ptr %6, align 8
  %71 = getelementptr inbounds ptr, ptr %70, i64 2
  %72 = load ptr, ptr %71, align 8
  %73 = load i32, ptr %7, align 4
  %74 = zext i32 %73 to i64
  %75 = getelementptr inbounds ptr, ptr %72, i64 %74
  %76 = load ptr, ptr %75, align 8
  store ptr %76, ptr %21, align 8
  %77 = load ptr, ptr %8, align 8
  %78 = getelementptr inbounds ptr, ptr %77, i64 0
  %79 = load ptr, ptr %78, align 8
  store ptr %79, ptr %16, align 8
  %80 = load ptr, ptr %8, align 8
  %81 = getelementptr inbounds ptr, ptr %80, i64 1
  %82 = load ptr, ptr %81, align 8
  store ptr %82, ptr %17, align 8
  %83 = load ptr, ptr %5, align 8
  %84 = getelementptr inbounds %struct.jpeg_decompress_struct, ptr %83, i32 0, i32 27
  %85 = load i32, ptr %84, align 8
  %86 = lshr i32 %85, 1
  store i32 %86, ptr %22, align 4
  br label %87

87:                                               ; preds = %253, %4
  %88 = load i32, ptr %22, align 4
  %89 = icmp ugt i32 %88, 0
  br i1 %89, label %90, label %256

90:                                               ; preds = %87
  %91 = load ptr, ptr %20, align 8
  %92 = getelementptr inbounds i8, ptr %91, i32 1
  store ptr %92, ptr %20, align 8
  %93 = load i8, ptr %91, align 1
  %94 = zext i8 %93 to i32
  store i32 %94, ptr %14, align 4
  %95 = load ptr, ptr %21, align 8
  %96 = getelementptr inbounds i8, ptr %95, i32 1
  store ptr %96, ptr %21, align 8
  %97 = load i8, ptr %95, align 1
  %98 = zext i8 %97 to i32
  store i32 %98, ptr %15, align 4
  %99 = load ptr, ptr %24, align 8
  %100 = load i32, ptr %15, align 4
  %101 = sext i32 %100 to i64
  %102 = getelementptr inbounds i32, ptr %99, i64 %101
  %103 = load i32, ptr %102, align 4
  store i32 %103, ptr %11, align 4
  %104 = load ptr, ptr %27, align 8
  %105 = load i32, ptr %14, align 4
  %106 = sext i32 %105 to i64
  %107 = getelementptr inbounds i32, ptr %104, i64 %106
  %108 = load i32, ptr %107, align 4
  %109 = load ptr, ptr %26, align 8
  %110 = load i32, ptr %15, align 4
  %111 = sext i32 %110 to i64
  %112 = getelementptr inbounds i32, ptr %109, i64 %111
  %113 = load i32, ptr %112, align 4
  %114 = add nsw i32 %108, %113
  %115 = ashr i32 %114, 16
  store i32 %115, ptr %12, align 4
  %116 = load ptr, ptr %25, align 8
  %117 = load i32, ptr %14, align 4
  %118 = sext i32 %117 to i64
  %119 = getelementptr inbounds i32, ptr %116, i64 %118
  %120 = load i32, ptr %119, align 4
  store i32 %120, ptr %13, align 4
  %121 = load ptr, ptr %18, align 8
  %122 = getelementptr inbounds i8, ptr %121, i32 1
  store ptr %122, ptr %18, align 8
  %123 = load i8, ptr %121, align 1
  %124 = zext i8 %123 to i32
  store i32 %124, ptr %10, align 4
  %125 = load ptr, ptr %23, align 8
  %126 = load i32, ptr %10, align 4
  %127 = load i32, ptr %11, align 4
  %128 = add nsw i32 %126, %127
  %129 = sext i32 %128 to i64
  %130 = getelementptr inbounds i8, ptr %125, i64 %129
  %131 = load i8, ptr %130, align 1
  %132 = load ptr, ptr %16, align 8
  %133 = getelementptr inbounds i8, ptr %132, i64 0
  store i8 %131, ptr %133, align 1
  %134 = load ptr, ptr %23, align 8
  %135 = load i32, ptr %10, align 4
  %136 = load i32, ptr %12, align 4
  %137 = add nsw i32 %135, %136
  %138 = sext i32 %137 to i64
  %139 = getelementptr inbounds i8, ptr %134, i64 %138
  %140 = load i8, ptr %139, align 1
  %141 = load ptr, ptr %16, align 8
  %142 = getelementptr inbounds i8, ptr %141, i64 1
  store i8 %140, ptr %142, align 1
  %143 = load ptr, ptr %23, align 8
  %144 = load i32, ptr %10, align 4
  %145 = load i32, ptr %13, align 4
  %146 = add nsw i32 %144, %145
  %147 = sext i32 %146 to i64
  %148 = getelementptr inbounds i8, ptr %143, i64 %147
  %149 = load i8, ptr %148, align 1
  %150 = load ptr, ptr %16, align 8
  %151 = getelementptr inbounds i8, ptr %150, i64 2
  store i8 %149, ptr %151, align 1
  %152 = load ptr, ptr %16, align 8
  %153 = getelementptr inbounds i8, ptr %152, i64 3
  store ptr %153, ptr %16, align 8
  %154 = load ptr, ptr %18, align 8
  %155 = getelementptr inbounds i8, ptr %154, i32 1
  store ptr %155, ptr %18, align 8
  %156 = load i8, ptr %154, align 1
  %157 = zext i8 %156 to i32
  store i32 %157, ptr %10, align 4
  %158 = load ptr, ptr %23, align 8
  %159 = load i32, ptr %10, align 4
  %160 = load i32, ptr %11, align 4
  %161 = add nsw i32 %159, %160
  %162 = sext i32 %161 to i64
  %163 = getelementptr inbounds i8, ptr %158, i64 %162
  %164 = load i8, ptr %163, align 1
  %165 = load ptr, ptr %16, align 8
  %166 = getelementptr inbounds i8, ptr %165, i64 0
  store i8 %164, ptr %166, align 1
  %167 = load ptr, ptr %23, align 8
  %168 = load i32, ptr %10, align 4
  %169 = load i32, ptr %12, align 4
  %170 = add nsw i32 %168, %169
  %171 = sext i32 %170 to i64
  %172 = getelementptr inbounds i8, ptr %167, i64 %171
  %173 = load i8, ptr %172, align 1
  %174 = load ptr, ptr %16, align 8
  %175 = getelementptr inbounds i8, ptr %174, i64 1
  store i8 %173, ptr %175, align 1
  %176 = load ptr, ptr %23, align 8
  %177 = load i32, ptr %10, align 4
  %178 = load i32, ptr %13, align 4
  %179 = add nsw i32 %177, %178
  %180 = sext i32 %179 to i64
  %181 = getelementptr inbounds i8, ptr %176, i64 %180
  %182 = load i8, ptr %181, align 1
  %183 = load ptr, ptr %16, align 8
  %184 = getelementptr inbounds i8, ptr %183, i64 2
  store i8 %182, ptr %184, align 1
  %185 = load ptr, ptr %16, align 8
  %186 = getelementptr inbounds i8, ptr %185, i64 3
  store ptr %186, ptr %16, align 8
  %187 = load ptr, ptr %19, align 8
  %188 = getelementptr inbounds i8, ptr %187, i32 1
  store ptr %188, ptr %19, align 8
  %189 = load i8, ptr %187, align 1
  %190 = zext i8 %189 to i32
  store i32 %190, ptr %10, align 4
  %191 = load ptr, ptr %23, align 8
  %192 = load i32, ptr %10, align 4
  %193 = load i32, ptr %11, align 4
  %194 = add nsw i32 %192, %193
  %195 = sext i32 %194 to i64
  %196 = getelementptr inbounds i8, ptr %191, i64 %195
  %197 = load i8, ptr %196, align 1
  %198 = load ptr, ptr %17, align 8
  %199 = getelementptr inbounds i8, ptr %198, i64 0
  store i8 %197, ptr %199, align 1
  %200 = load ptr, ptr %23, align 8
  %201 = load i32, ptr %10, align 4
  %202 = load i32, ptr %12, align 4
  %203 = add nsw i32 %201, %202
  %204 = sext i32 %203 to i64
  %205 = getelementptr inbounds i8, ptr %200, i64 %204
  %206 = load i8, ptr %205, align 1
  %207 = load ptr, ptr %17, align 8
  %208 = getelementptr inbounds i8, ptr %207, i64 1
  store i8 %206, ptr %208, align 1
  %209 = load ptr, ptr %23, align 8
  %210 = load i32, ptr %10, align 4
  %211 = load i32, ptr %13, align 4
  %212 = add nsw i32 %210, %211
  %213 = sext i32 %212 to i64
  %214 = getelementptr inbounds i8, ptr %209, i64 %213
  %215 = load i8, ptr %214, align 1
  %216 = load ptr, ptr %17, align 8
  %217 = getelementptr inbounds i8, ptr %216, i64 2
  store i8 %215, ptr %217, align 1
  %218 = load ptr, ptr %17, align 8
  %219 = getelementptr inbounds i8, ptr %218, i64 3
  store ptr %219, ptr %17, align 8
  %220 = load ptr, ptr %19, align 8
  %221 = getelementptr inbounds i8, ptr %220, i32 1
  store ptr %221, ptr %19, align 8
  %222 = load i8, ptr %220, align 1
  %223 = zext i8 %222 to i32
  store i32 %223, ptr %10, align 4
  %224 = load ptr, ptr %23, align 8
  %225 = load i32, ptr %10, align 4
  %226 = load i32, ptr %11, align 4
  %227 = add nsw i32 %225, %226
  %228 = sext i32 %227 to i64
  %229 = getelementptr inbounds i8, ptr %224, i64 %228
  %230 = load i8, ptr %229, align 1
  %231 = load ptr, ptr %17, align 8
  %232 = getelementptr inbounds i8, ptr %231, i64 0
  store i8 %230, ptr %232, align 1
  %233 = load ptr, ptr %23, align 8
  %234 = load i32, ptr %10, align 4
  %235 = load i32, ptr %12, align 4
  %236 = add nsw i32 %234, %235
  %237 = sext i32 %236 to i64
  %238 = getelementptr inbounds i8, ptr %233, i64 %237
  %239 = load i8, ptr %238, align 1
  %240 = load ptr, ptr %17, align 8
  %241 = getelementptr inbounds i8, ptr %240, i64 1
  store i8 %239, ptr %241, align 1
  %242 = load ptr, ptr %23, align 8
  %243 = load i32, ptr %10, align 4
  %244 = load i32, ptr %13, align 4
  %245 = add nsw i32 %243, %244
  %246 = sext i32 %245 to i64
  %247 = getelementptr inbounds i8, ptr %242, i64 %246
  %248 = load i8, ptr %247, align 1
  %249 = load ptr, ptr %17, align 8
  %250 = getelementptr inbounds i8, ptr %249, i64 2
  store i8 %248, ptr %250, align 1
  %251 = load ptr, ptr %17, align 8
  %252 = getelementptr inbounds i8, ptr %251, i64 3
  store ptr %252, ptr %17, align 8
  br label %253

253:                                              ; preds = %90
  %254 = load i32, ptr %22, align 4
  %255 = add i32 %254, -1
  store i32 %255, ptr %22, align 4
  br label %87, !llvm.loop !6

256:                                              ; preds = %87
  %257 = load ptr, ptr %5, align 8
  %258 = getelementptr inbounds %struct.jpeg_decompress_struct, ptr %257, i32 0, i32 27
  %259 = load i32, ptr %258, align 8
  %260 = and i32 %259, 1
  %261 = icmp ne i32 %260, 0
  br i1 %261, label %262, label %351

262:                                              ; preds = %256
  %263 = load ptr, ptr %20, align 8
  %264 = load i8, ptr %263, align 1
  %265 = zext i8 %264 to i32
  store i32 %265, ptr %14, align 4
  %266 = load ptr, ptr %21, align 8
  %267 = load i8, ptr %266, align 1
  %268 = zext i8 %267 to i32
  store i32 %268, ptr %15, align 4
  %269 = load ptr, ptr %24, align 8
  %270 = load i32, ptr %15, align 4
  %271 = sext i32 %270 to i64
  %272 = getelementptr inbounds i32, ptr %269, i64 %271
  %273 = load i32, ptr %272, align 4
  store i32 %273, ptr %11, align 4
  %274 = load ptr, ptr %27, align 8
  %275 = load i32, ptr %14, align 4
  %276 = sext i32 %275 to i64
  %277 = getelementptr inbounds i32, ptr %274, i64 %276
  %278 = load i32, ptr %277, align 4
  %279 = load ptr, ptr %26, align 8
  %280 = load i32, ptr %15, align 4
  %281 = sext i32 %280 to i64
  %282 = getelementptr inbounds i32, ptr %279, i64 %281
  %283 = load i32, ptr %282, align 4
  %284 = add nsw i32 %278, %283
  %285 = ashr i32 %284, 16
  store i32 %285, ptr %12, align 4
  %286 = load ptr, ptr %25, align 8
  %287 = load i32, ptr %14, align 4
  %288 = sext i32 %287 to i64
  %289 = getelementptr inbounds i32, ptr %286, i64 %288
  %290 = load i32, ptr %289, align 4
  store i32 %290, ptr %13, align 4
  %291 = load ptr, ptr %18, align 8
  %292 = load i8, ptr %291, align 1
  %293 = zext i8 %292 to i32
  store i32 %293, ptr %10, align 4
  %294 = load ptr, ptr %23, align 8
  %295 = load i32, ptr %10, align 4
  %296 = load i32, ptr %11, align 4
  %297 = add nsw i32 %295, %296
  %298 = sext i32 %297 to i64
  %299 = getelementptr inbounds i8, ptr %294, i64 %298
  %300 = load i8, ptr %299, align 1
  %301 = load ptr, ptr %16, align 8
  %302 = getelementptr inbounds i8, ptr %301, i64 0
  store i8 %300, ptr %302, align 1
  %303 = load ptr, ptr %23, align 8
  %304 = load i32, ptr %10, align 4
  %305 = load i32, ptr %12, align 4
  %306 = add nsw i32 %304, %305
  %307 = sext i32 %306 to i64
  %308 = getelementptr inbounds i8, ptr %303, i64 %307
  %309 = load i8, ptr %308, align 1
  %310 = load ptr, ptr %16, align 8
  %311 = getelementptr inbounds i8, ptr %310, i64 1
  store i8 %309, ptr %311, align 1
  %312 = load ptr, ptr %23, align 8
  %313 = load i32, ptr %10, align 4
  %314 = load i32, ptr %13, align 4
  %315 = add nsw i32 %313, %314
  %316 = sext i32 %315 to i64
  %317 = getelementptr inbounds i8, ptr %312, i64 %316
  %318 = load i8, ptr %317, align 1
  %319 = load ptr, ptr %16, align 8
  %320 = getelementptr inbounds i8, ptr %319, i64 2
  store i8 %318, ptr %320, align 1
  %321 = load ptr, ptr %19, align 8
  %322 = load i8, ptr %321, align 1
  %323 = zext i8 %322 to i32
  store i32 %323, ptr %10, align 4
  %324 = load ptr, ptr %23, align 8
  %325 = load i32, ptr %10, align 4
  %326 = load i32, ptr %11, align 4
  %327 = add nsw i32 %325, %326
  %328 = sext i32 %327 to i64
  %329 = getelementptr inbounds i8, ptr %324, i64 %328
  %330 = load i8, ptr %329, align 1
  %331 = load ptr, ptr %17, align 8
  %332 = getelementptr inbounds i8, ptr %331, i64 0
  store i8 %330, ptr %332, align 1
  %333 = load ptr, ptr %23, align 8
  %334 = load i32, ptr %10, align 4
  %335 = load i32, ptr %12, align 4
  %336 = add nsw i32 %334, %335
  %337 = sext i32 %336 to i64
  %338 = getelementptr inbounds i8, ptr %333, i64 %337
  %339 = load i8, ptr %338, align 1
  %340 = load ptr, ptr %17, align 8
  %341 = getelementptr inbounds i8, ptr %340, i64 1
  store i8 %339, ptr %341, align 1
  %342 = load ptr, ptr %23, align 8
  %343 = load i32, ptr %10, align 4
  %344 = load i32, ptr %13, align 4
  %345 = add nsw i32 %343, %344
  %346 = sext i32 %345 to i64
  %347 = getelementptr inbounds i8, ptr %342, i64 %346
  %348 = load i8, ptr %347, align 1
  %349 = load ptr, ptr %17, align 8
  %350 = getelementptr inbounds i8, ptr %349, i64 2
  store i8 %348, ptr %350, align 1
  br label %351

351:                                              ; preds = %262, %256
  ret void
}