; Function Attrs: nofree norecurse nosync nounwind memory(readwrite, inaccessiblemem: none) uwtable
define internal void @h2v2_merged_upsample(ptr nocapture noundef readonly %0, ptr nocapture noundef readonly %1, i32 noundef %2, ptr nocapture noundef readonly %3) #2 {
  %5 = getelementptr inbounds i8, ptr %0, i64 608
  %6 = load ptr, ptr %5, align 8
  %7 = getelementptr inbounds i8, ptr %0, i64 424
  %8 = load ptr, ptr %7, align 8
  %9 = getelementptr inbounds i8, ptr %6, i64 32
  %10 = load ptr, ptr %9, align 8
  %11 = getelementptr inbounds i8, ptr %6, i64 40
  %12 = load ptr, ptr %11, align 8
  %13 = getelementptr inbounds i8, ptr %6, i64 48
  %14 = load ptr, ptr %13, align 8
  %15 = getelementptr inbounds i8, ptr %6, i64 56
  %16 = load ptr, ptr %15, align 8
  %17 = load ptr, ptr %1, align 8
  %18 = shl i32 %2, 1
  %19 = zext i32 %18 to i64
  %20 = getelementptr inbounds ptr, ptr %17, i64 %19
  %21 = load ptr, ptr %20, align 8
  %22 = or disjoint i32 %18, 1
  %23 = zext i32 %22 to i64
  %24 = getelementptr inbounds ptr, ptr %17, i64 %23
  %25 = load ptr, ptr %24, align 8
  %26 = getelementptr inbounds i8, ptr %1, i64 8
  %27 = load ptr, ptr %26, align 8
  %28 = zext i32 %2 to i64
  %29 = getelementptr inbounds ptr, ptr %27, i64 %28
  %30 = load ptr, ptr %29, align 8
  %31 = getelementptr inbounds i8, ptr %1, i64 16
  %32 = load ptr, ptr %31, align 8
  %33 = getelementptr inbounds ptr, ptr %32, i64 %28
  %34 = load ptr, ptr %33, align 8
  %35 = load ptr, ptr %3, align 8
  %36 = getelementptr inbounds i8, ptr %3, i64 8
  %37 = load ptr, ptr %36, align 8
  %38 = getelementptr inbounds i8, ptr %0, i64 136
  %39 = load i32, ptr %38, align 8
  %.not128 = icmp ult i32 %39, 2
  br i1 %.not128, label %._crit_edge, label %.lr.ph.preheader

.lr.ph.preheader:                                 ; preds = %4
  %40 = lshr i32 %39, 1
  br label %.lr.ph

.lr.ph:                                           ; preds = %.lr.ph.preheader, %.lr.ph
  %.0135 = phi i32 [ %129, %.lr.ph ], [ %40, %.lr.ph.preheader ]
  %.0121134 = phi ptr [ %43, %.lr.ph ], [ %34, %.lr.ph.preheader ]
  %.0122133 = phi ptr [ %41, %.lr.ph ], [ %30, %.lr.ph.preheader ]
  %.0123132 = phi ptr [ %111, %.lr.ph ], [ %25, %.lr.ph.preheader ]
  %.0124131 = phi ptr [ %75, %.lr.ph ], [ %21, %.lr.ph.preheader ]
  %.0125130 = phi ptr [ %128, %.lr.ph ], [ %37, %.lr.ph.preheader ]
  %.0126129 = phi ptr [ %92, %.lr.ph ], [ %35, %.lr.ph.preheader ]
  %41 = getelementptr inbounds i8, ptr %.0122133, i64 1
  %42 = load i8, ptr %.0122133, align 1
  %43 = getelementptr inbounds i8, ptr %.0121134, i64 1
  %44 = load i8, ptr %.0121134, align 1
  %45 = zext i8 %44 to i64
  %46 = getelementptr inbounds i32, ptr %10, i64 %45
  %47 = load i32, ptr %46, align 4
  %48 = zext i8 %42 to i64
  %49 = getelementptr inbounds i32, ptr %16, i64 %48
  %50 = load i32, ptr %49, align 4
  %51 = getelementptr inbounds i32, ptr %14, i64 %45
  %52 = load i32, ptr %51, align 4
  %53 = add nsw i32 %52, %50
  %54 = ashr i32 %53, 16
  %55 = getelementptr inbounds i32, ptr %12, i64 %48
  %56 = load i32, ptr %55, align 4
  %57 = getelementptr inbounds i8, ptr %.0124131, i64 1
  %58 = load i8, ptr %.0124131, align 1
  %59 = zext i8 %58 to i32
  %60 = add nsw i32 %47, %59
  %61 = sext i32 %60 to i64
  %62 = getelementptr inbounds i8, ptr %8, i64 %61
  %63 = load i8, ptr %62, align 1
  store i8 %63, ptr %.0126129, align 1
  %64 = add nsw i32 %54, %59
  %65 = sext i32 %64 to i64
  %66 = getelementptr inbounds i8, ptr %8, i64 %65
  %67 = load i8, ptr %66, align 1
  %68 = getelementptr inbounds i8, ptr %.0126129, i64 1
  store i8 %67, ptr %68, align 1
  %69 = add nsw i32 %56, %59
  %70 = sext i32 %69 to i64
  %71 = getelementptr inbounds i8, ptr %8, i64 %70
  %72 = load i8, ptr %71, align 1
  %73 = getelementptr inbounds i8, ptr %.0126129, i64 2
  store i8 %72, ptr %73, align 1
  %74 = getelementptr inbounds i8, ptr %.0126129, i64 3
  %75 = getelementptr inbounds i8, ptr %.0124131, i64 2
  %76 = load i8, ptr %57, align 1
  %77 = zext i8 %76 to i32
  %78 = add nsw i32 %47, %77
  %79 = sext i32 %78 to i64
  %80 = getelementptr inbounds i8, ptr %8, i64 %79
  %81 = load i8, ptr %80, align 1
  store i8 %81, ptr %74, align 1
  %82 = add nsw i32 %54, %77
  %83 = sext i32 %82 to i64
  %84 = getelementptr inbounds i8, ptr %8, i64 %83
  %85 = load i8, ptr %84, align 1
  %86 = getelementptr inbounds i8, ptr %.0126129, i64 4
  store i8 %85, ptr %86, align 1
  %87 = add nsw i32 %56, %77
  %88 = sext i32 %87 to i64
  %89 = getelementptr inbounds i8, ptr %8, i64 %88
  %90 = load i8, ptr %89, align 1
  %91 = getelementptr inbounds i8, ptr %.0126129, i64 5
  store i8 %90, ptr %91, align 1
  %92 = getelementptr inbounds i8, ptr %.0126129, i64 6
  %93 = getelementptr inbounds i8, ptr %.0123132, i64 1
  %94 = load i8, ptr %.0123132, align 1
  %95 = zext i8 %94 to i32
  %96 = add nsw i32 %47, %95
  %97 = sext i32 %96 to i64
  %98 = getelementptr inbounds i8, ptr %8, i64 %97
  %99 = load i8, ptr %98, align 1
  store i8 %99, ptr %.0125130, align 1
  %100 = add nsw i32 %54, %95
  %101 = sext i32 %100 to i64
  %102 = getelementptr inbounds i8, ptr %8, i64 %101
  %103 = load i8, ptr %102, align 1
  %104 = getelementptr inbounds i8, ptr %.0125130, i64 1
  store i8 %103, ptr %104, align 1
  %105 = add nsw i32 %56, %95
  %106 = sext i32 %105 to i64
  %107 = getelementptr inbounds i8, ptr %8, i64 %106
  %108 = load i8, ptr %107, align 1
  %109 = getelementptr inbounds i8, ptr %.0125130, i64 2
  store i8 %108, ptr %109, align 1
  %110 = getelementptr inbounds i8, ptr %.0125130, i64 3
  %111 = getelementptr inbounds i8, ptr %.0123132, i64 2
  %112 = load i8, ptr %93, align 1
  %113 = zext i8 %112 to i32
  %114 = add nsw i32 %47, %113
  %115 = sext i32 %114 to i64
  %116 = getelementptr inbounds i8, ptr %8, i64 %115
  %117 = load i8, ptr %116, align 1
  store i8 %117, ptr %110, align 1
  %118 = add nsw i32 %54, %113
  %119 = sext i32 %118 to i64
  %120 = getelementptr inbounds i8, ptr %8, i64 %119
  %121 = load i8, ptr %120, align 1
  %122 = getelementptr inbounds i8, ptr %.0125130, i64 4
  store i8 %121, ptr %122, align 1
  %123 = add nsw i32 %56, %113
  %124 = sext i32 %123 to i64
  %125 = getelementptr inbounds i8, ptr %8, i64 %124
  %126 = load i8, ptr %125, align 1
  %127 = getelementptr inbounds i8, ptr %.0125130, i64 5
  store i8 %126, ptr %127, align 1
  %128 = getelementptr inbounds i8, ptr %.0125130, i64 6
  %129 = add nsw i32 %.0135, -1
  %.not = icmp eq i32 %129, 0
  br i1 %.not, label %._crit_edge.loopexit, label %.lr.ph, !llvm.loop !8

._crit_edge.loopexit:                             ; preds = %.lr.ph
  %.pre = load i32, ptr %38, align 8
  br label %._crit_edge

._crit_edge:                                      ; preds = %._crit_edge.loopexit, %4
  %130 = phi i32 [ %39, %4 ], [ %.pre, %._crit_edge.loopexit ]
  %.0126.lcssa = phi ptr [ %35, %4 ], [ %92, %._crit_edge.loopexit ]
  %.0125.lcssa = phi ptr [ %37, %4 ], [ %128, %._crit_edge.loopexit ]
  %.0124.lcssa = phi ptr [ %21, %4 ], [ %75, %._crit_edge.loopexit ]
  %.0123.lcssa = phi ptr [ %25, %4 ], [ %111, %._crit_edge.loopexit ]
  %.0122.lcssa = phi ptr [ %30, %4 ], [ %41, %._crit_edge.loopexit ]
  %.0121.lcssa = phi ptr [ %34, %4 ], [ %43, %._crit_edge.loopexit ]
  %131 = and i32 %130, 1
  %.not127 = icmp eq i32 %131, 0
  br i1 %.not127, label %179, label %132

132:                                              ; preds = %._crit_edge
  %133 = load i8, ptr %.0122.lcssa, align 1
  %134 = load i8, ptr %.0121.lcssa, align 1
  %135 = zext i8 %134 to i64
  %136 = getelementptr inbounds i32, ptr %10, i64 %135
  %137 = load i32, ptr %136, align 4
  %138 = zext i8 %133 to i64
  %139 = getelementptr inbounds i32, ptr %16, i64 %138
  %140 = load i32, ptr %139, align 4
  %141 = getelementptr inbounds i32, ptr %14, i64 %135
  %142 = load i32, ptr %141, align 4
  %143 = add nsw i32 %142, %140
  %144 = ashr i32 %143, 16
  %145 = getelementptr inbounds i32, ptr %12, i64 %138
  %146 = load i32, ptr %145, align 4
  %147 = load i8, ptr %.0124.lcssa, align 1
  %148 = zext i8 %147 to i32
  %149 = add nsw i32 %137, %148
  %150 = sext i32 %149 to i64
  %151 = getelementptr inbounds i8, ptr %8, i64 %150
  %152 = load i8, ptr %151, align 1
  store i8 %152, ptr %.0126.lcssa, align 1
  %153 = add nsw i32 %144, %148
  %154 = sext i32 %153 to i64
  %155 = getelementptr inbounds i8, ptr %8, i64 %154
  %156 = load i8, ptr %155, align 1
  %157 = getelementptr inbounds i8, ptr %.0126.lcssa, i64 1
  store i8 %156, ptr %157, align 1
  %158 = add nsw i32 %146, %148
  %159 = sext i32 %158 to i64
  %160 = getelementptr inbounds i8, ptr %8, i64 %159
  %161 = load i8, ptr %160, align 1
  %162 = getelementptr inbounds i8, ptr %.0126.lcssa, i64 2
  store i8 %161, ptr %162, align 1
  %163 = load i8, ptr %.0123.lcssa, align 1
  %164 = zext i8 %163 to i32
  %165 = add nsw i32 %137, %164
  %166 = sext i32 %165 to i64
  %167 = getelementptr inbounds i8, ptr %8, i64 %166
  %168 = load i8, ptr %167, align 1
  store i8 %168, ptr %.0125.lcssa, align 1
  %169 = add nsw i32 %144, %164
  %170 = sext i32 %169 to i64
  %171 = getelementptr inbounds i8, ptr %8, i64 %170
  %172 = load i8, ptr %171, align 1
  %173 = getelementptr inbounds i8, ptr %.0125.lcssa, i64 1
  store i8 %172, ptr %173, align 1
  %174 = add nsw i32 %146, %164
  %175 = sext i32 %174 to i64
  %176 = getelementptr inbounds i8, ptr %8, i64 %175
  %177 = load i8, ptr %176, align 1
  %178 = getelementptr inbounds i8, ptr %.0125.lcssa, i64 2
  store i8 %177, ptr %178, align 1
  br label %179

179:                                              ; preds = %132, %._crit_edge
  ret void
}